; Function Attrs: mustprogress uwtable
define hidden void @_ZNK3smt9theory_pb13display_watchERSojb(ptr noundef nonnull readonly align 8 captures(none) dereferenceable(968) %0, ptr noundef nonnull align 8 dereferenceable(8) %1, i32 noundef %2, i1 noundef zeroext %3) local_unnamed_addr #4 align 2 {
  %5 = getelementptr inbounds nuw i8, ptr %0, i64 64
  %6 = load ptr, ptr %5, align 8, !tbaa !700
  %7 = zext i32 %2 to i64
  %8 = getelementptr inbounds nuw %"struct.smt::theory_pb::var_info", ptr %6, i64 %7
  %9 = zext i1 %3 to i64
  %10 = getelementptr inbounds nuw [2 x ptr], ptr %8, i64 0, i64 %9
  %11 = load ptr, ptr %10, align 8, !tbaa !787
  %.not = icmp eq ptr %11, null
  br i1 %.not, label %53, label %12

12:                                               ; preds = %4
  %13 = tail call noundef nonnull align 8 dereferenceable(8) ptr @_ZSt16__ostream_insertIcSt11char_traitsIcEERSt13basic_ostreamIT_T0_ES6_PKS3_l(ptr noundef nonnull align 8 dereferenceable(8) %1, ptr noundef nonnull @.str.44, i64 noundef 7)
  %14 = shl i32 %2, 1
  %15 = zext i1 %3 to i32
  %16 = or disjoint i32 %14, %15
  %17 = icmp eq i32 %16, -2
  br i1 %17, label %18, label %20

18:                                               ; preds = %12
  %19 = tail call noundef nonnull align 8 dereferenceable(8) ptr @_ZSt16__ostream_insertIcSt11char_traitsIcEERSt13basic_ostreamIT_T0_ES6_PKS3_l(ptr noundef nonnull align 8 dereferenceable(8) %1, ptr noundef nonnull @.str.46, i64 noundef 4)
  br label %_ZN3satlsERSoNS_7literalE.exit

20:                                               ; preds = %12
  %21 = select i1 %3, ptr @.str.47, ptr @.str.48
  %22 = tail call noundef nonnull align 8 dereferenceable(8) ptr @_ZSt16__ostream_insertIcSt11char_traitsIcEERSt13basic_ostreamIT_T0_ES6_PKS3_l(ptr noundef nonnull align 8 dereferenceable(8) %1, ptr noundef nonnull %21, i64 noundef %9)
  %23 = and i32 %2, 2147483647
  %24 = zext nneg i32 %23 to i64
  %25 = tail call noundef nonnull align 8 dereferenceable(8) ptr @_ZNSo9_M_insertImEERSoT_(ptr noundef nonnull align 8 dereferenceable(8) %1, i64 noundef %24)
  br label %_ZN3satlsERSoNS_7literalE.exit

_ZN3satlsERSoNS_7literalE.exit:                   ; preds = %18, %20
  %26 = tail call noundef nonnull align 8 dereferenceable(8) ptr @_ZSt16__ostream_insertIcSt11char_traitsIcEERSt13basic_ostreamIT_T0_ES6_PKS3_l(ptr noundef nonnull align 8 dereferenceable(8) %1, ptr noundef nonnull @.str.45, i64 noundef 5)
  br label %27

27:                                               ; preds = %_ZN3satlsERSoNS_7literalE.exit16, %_ZN3satlsERSoNS_7literalE.exit
  %indvars.iv = phi i64 [ %indvars.iv.next, %_ZN3satlsERSoNS_7literalE.exit16 ], [ 0, %_ZN3satlsERSoNS_7literalE.exit ]
  %28 = load ptr, ptr %11, align 8, !tbaa !782
  %29 = icmp eq ptr %28, null
  br i1 %29, label %_ZNK6vectorIPN3smt9theory_pb4ineqELb0EjE4sizeEv.exit, label %30

30:                                               ; preds = %27
  %31 = getelementptr inbounds i8, ptr %28, i64 -4
  %32 = load i32, ptr %31, align 4, !tbaa !9
  %33 = zext i32 %32 to i64
  br label %_ZNK6vectorIPN3smt9theory_pb4ineqELb0EjE4sizeEv.exit

_ZNK6vectorIPN3smt9theory_pb4ineqELb0EjE4sizeEv.exit: ; preds = %27, %30
  %.0.i = phi i64 [ %33, %30 ], [ 0, %27 ]
  %34 = icmp samesign ult i64 %indvars.iv, %.0.i
  br i1 %34, label %37, label %35

35:                                               ; preds = %_ZNK6vectorIPN3smt9theory_pb4ineqELb0EjE4sizeEv.exit
  %36 = tail call noundef nonnull align 8 dereferenceable(8) ptr @_ZSt16__ostream_insertIcSt11char_traitsIcEERSt13basic_ostreamIT_T0_ES6_PKS3_l(ptr noundef nonnull align 8 dereferenceable(8) %1, ptr noundef nonnull @.str.12, i64 noundef 1)
  br label %53

37:                                               ; preds = %_ZNK6vectorIPN3smt9theory_pb4ineqELb0EjE4sizeEv.exit
  %38 = getelementptr inbounds nuw ptr, ptr %28, i64 %indvars.iv
  %39 = load ptr, ptr %38, align 8, !tbaa !785
  %40 = getelementptr inbounds nuw i8, ptr %39, i64 8
  %.sroa.0.0.copyload.i = load i32, ptr %40, align 8, !tbaa !9
  %41 = icmp eq i32 %.sroa.0.0.copyload.i, -2
  br i1 %41, label %42, label %44

42:                                               ; preds = %37
  %43 = tail call noundef nonnull align 8 dereferenceable(8) ptr @_ZSt16__ostream_insertIcSt11char_traitsIcEERSt13basic_ostreamIT_T0_ES6_PKS3_l(ptr noundef nonnull align 8 dereferenceable(8) %1, ptr noundef nonnull @.str.46, i64 noundef 4)
  br label %_ZN3satlsERSoNS_7literalE.exit16

44:                                               ; preds = %37
  %45 = and i32 %.sroa.0.0.copyload.i, 1
  %.not.not.i15 = icmp eq i32 %45, 0
  %46 = select i1 %.not.not.i15, ptr @.str.48, ptr @.str.47
  %47 = zext nneg i32 %45 to i64
  %48 = tail call noundef nonnull align 8 dereferenceable(8) ptr @_ZSt16__ostream_insertIcSt11char_traitsIcEERSt13basic_ostreamIT_T0_ES6_PKS3_l(ptr noundef nonnull align 8 dereferenceable(8) %1, ptr noundef nonnull %46, i64 noundef %47)
  %49 = lshr i32 %.sroa.0.0.copyload.i, 1
  %50 = zext nneg i32 %49 to i64
  %51 = tail call noundef nonnull align 8 dereferenceable(8) ptr @_ZNSo9_M_insertImEERSoT_(ptr noundef nonnull align 8 dereferenceable(8) %1, i64 noundef %50)
  br label %_ZN3satlsERSoNS_7literalE.exit16

_ZN3satlsERSoNS_7literalE.exit16:                 ; preds = %42, %44
  %52 = tail call noundef nonnull align 8 dereferenceable(8) ptr @_ZSt16__ostream_insertIcSt11char_traitsIcEERSt13basic_ostreamIT_T0_ES6_PKS3_l(ptr noundef nonnull align 8 dereferenceable(8) %1, ptr noundef nonnull @.str.15, i64 noundef 1)
  %indvars.iv.next = add nuw nsw i64 %indvars.iv, 1
  br label %27, !llvm.loop !912

53:                                               ; preds = %4, %35
  ret void
}